target datalayout = "e-m:e-p270:32:32-p271:32:32-p272:64:64-i64:64-i128:128-f80:128-n8:16:32:64-S128"
target triple = "x86_64-unknown-linux-gnu"

%struct.malloc_mutex_s = type { %union.anon }
%union.anon = type { %struct.anon.1 }
%struct.anon.1 = type { %struct.mutex_prof_data_t, %union.pthread_mutex_t, %struct.atomic_b_t }
%struct.mutex_prof_data_t = type { %struct.nstime_t, %struct.nstime_t, i64, i64, i32, %struct.atomic_u32_t, i64, ptr, i64 }
%struct.nstime_t = type { i64 }
%struct.atomic_u32_t = type { i32 }
%union.pthread_mutex_t = type { %struct.__pthread_mutex_s }
%struct.__pthread_mutex_s = type { i32, i32, i32, i32, i32, i16, i16, %struct.__pthread_internal_list }
%struct.__pthread_internal_list = type { ptr, ptr }
%struct.atomic_b_t = type { i8 }
%struct.edata_list_active_t = type { %struct.anon.3 }
%struct.anon.3 = type { ptr }
%struct.edata_heap_t = type { %struct.ph_s }
%struct.ph_s = type { ptr, i64 }
%struct.bin_s = type { %struct.malloc_mutex_s, %struct.bin_stats_s, ptr, %struct.edata_heap_t, %struct.edata_list_active_t }
%struct.bin_stats_s = type { i64, i64, i64, i64, i64, i64, i64, i64, i64, i64 }
%struct.cache_bin_array_descriptor_s = type { %struct.anon.8, ptr }
%struct.anon.8 = type { ptr, ptr }
%struct.cache_bin_s = type { ptr, %struct.cache_bin_stats_s, i16, i16, i16 }
%struct.cache_bin_stats_s = type { i64 }
%struct.tsd_s = type { i8, i8, i64, i64, i64, i64, i64, i64, i64, i64, i64, i64, i64, i64, ptr, i64, i64, i64, ptr, ptr, %struct.ticker_geom_s, i8, %struct.tsd_binshards_s, %struct.tsd_link_t, i8, %struct.peak_s, %struct.activity_callback_thunk_s, %struct.tcache_slow_s, %struct.rtree_ctx_s, %struct.atomic_u8_t, i64, i64, i64, i64, %struct.tcache_s, %struct.witness_tsd_s }
%struct.ticker_geom_s = type { i32, i32 }
%struct.tsd_binshards_s = type { [39 x i8] }
%struct.tsd_link_t = type { ptr, ptr }
%struct.peak_s = type { i64, i64 }
%struct.activity_callback_thunk_s = type { ptr, ptr }
%struct.tcache_slow_s = type { %struct.anon.10, %struct.cache_bin_array_descriptor_s, ptr, i32, [39 x i8], [39 x i8], [39 x i8], ptr, ptr }
%struct.anon.10 = type { ptr, ptr }
%struct.rtree_ctx_s = type { [16 x %struct.rtree_ctx_cache_elm_s], [8 x %struct.rtree_ctx_cache_elm_s] }
%struct.rtree_ctx_cache_elm_s = type { i64, ptr }
%struct.atomic_u8_t = type { i8 }
%struct.tcache_s = type { ptr, [76 x %struct.cache_bin_s] }
%struct.witness_tsd_s = type { %struct.witness_list_t, i8 }
%struct.witness_list_t = type { ptr }

@arena_bin_offsets = hidden global [39 x i32] zeroinitializer, align 16

; Function Attrs: nounwind uwtable
define internal ptr @arena_get_bin(ptr noundef %arena, i32 noundef %binind, i32 noundef %binshard) #0 {
entry:
  %arena.addr = alloca ptr, align 8
  %binind.addr = alloca i32, align 4
  %binshard.addr = alloca i32, align 4
  %shard0 = alloca ptr, align 8
  store ptr %arena, ptr %arena.addr, align 8
  store i32 %binind, ptr %binind.addr, align 4
  store i32 %binshard, ptr %binshard.addr, align 4
  %0 = load ptr, ptr %arena.addr, align 8
  %1 = ptrtoint ptr %0 to i64
  %2 = load i32, ptr %binind.addr, align 4
  %idxprom = zext i32 %2 to i64
  %arrayidx = getelementptr inbounds [39 x i32], ptr @arena_bin_offsets, i64 0, i64 %idxprom
  %3 = load i32, ptr %arrayidx, align 4
  %conv = zext i32 %3 to i64
  %add = add i64 %1, %conv
  %4 = inttoptr i64 %add to ptr
  store ptr %4, ptr %shard0, align 8
  %5 = load ptr, ptr %shard0, align 8
  %6 = load i32, ptr %binshard.addr, align 4
  %idx.ext = zext i32 %6 to i64
  %add.ptr = getelementptr inbounds %struct.bin_s, ptr %5, i64 %idx.ext
  ret ptr %add.ptr
}

; Function Attrs: nounwind uwtable
define hidden ptr @arena_bin_choose(ptr noundef %tsdn, ptr noundef %arena, i32 noundef %binind, ptr noundef %binshard_p) #0 {
entry:
  %tsd.addr.i21 = alloca ptr, align 8
  %tsd.addr.i20 = alloca ptr, align 8
  %tsd.addr.i.i = alloca ptr, align 8
  %tsd.addr.i17 = alloca ptr, align 8
  %state.i18 = alloca i8, align 1
  %tsd.addr.i15 = alloca ptr, align 8
  %tsd.addr.i13 = alloca ptr, align 8
  %state.i = alloca i8, align 1
  %tsdn.addr.i12 = alloca ptr, align 8
  %tsdn.addr.i11 = alloca ptr, align 8
  %tsd.addr.i = alloca ptr, align 8
  %tsdn.addr.i = alloca ptr, align 8
  %tsdn.addr = alloca ptr, align 8
  %arena.addr = alloca ptr, align 8
  %binind.addr = alloca i32, align 4
  %binshard_p.addr = alloca ptr, align 8
  %binshard = alloca i32, align 4
  store ptr %tsdn, ptr %tsdn.addr, align 8
  store ptr %arena, ptr %arena.addr, align 8
  store i32 %binind, ptr %binind.addr, align 4
  store ptr %binshard_p, ptr %binshard_p.addr, align 8
  %0 = load ptr, ptr %tsdn.addr, align 8
  store ptr %0, ptr %tsdn.addr.i, align 8
  %1 = load ptr, ptr %tsdn.addr.i, align 8
  %cmp.i = icmp eq ptr %1, null
  br i1 %cmp.i, label %if.then, label %lor.lhs.false

lor.lhs.false:                                    ; preds = %entry
  %2 = load ptr, ptr %tsdn.addr, align 8
  store ptr %2, ptr %tsdn.addr.i12, align 8
  %3 = load ptr, ptr %tsdn.addr.i12, align 8
  store ptr %3, ptr %tsd.addr.i, align 8
  %4 = load ptr, ptr %tsd.addr.i, align 8
  store ptr %4, ptr %tsd.addr.i17, align 8
  %5 = load ptr, ptr %tsd.addr.i17, align 8
  store ptr %5, ptr %tsd.addr.i.i, align 8
  %6 = load ptr, ptr %tsd.addr.i.i, align 8
  %state.i.i = getelementptr inbounds %struct.tsd_s, ptr %6, i32 0, i32 29
  %7 = load i8, ptr %state.i.i, align 8
  store i8 %7, ptr %state.i18, align 1
  %8 = load ptr, ptr %tsd.addr.i17, align 8
  store ptr %8, ptr %tsd.addr.i20, align 8
  %9 = load ptr, ptr %tsd.addr.i20, align 8
  %cant_access_tsd_items_directly_use_a_getter_or_setter_arena.i = getelementptr inbounds %struct.tsd_s, ptr %9, i32 0, i32 19
  %10 = load ptr, ptr %cant_access_tsd_items_directly_use_a_getter_or_setter_arena.i, align 8
  %cmp = icmp eq ptr %10, null
  br i1 %cmp, label %if.then, label %if.else

if.then:                                          ; preds = %lor.lhs.false, %entry
  store i32 0, ptr %binshard, align 4
  br label %if.end

if.else:                                          ; preds = %lor.lhs.false
  %11 = load ptr, ptr %tsdn.addr, align 8
  store ptr %11, ptr %tsdn.addr.i11, align 8
  %12 = load ptr, ptr %tsdn.addr.i11, align 8
  store ptr %12, ptr %tsd.addr.i13, align 8
  %13 = load ptr, ptr %tsd.addr.i13, align 8
  store ptr %13, ptr %tsd.addr.i15, align 8
  %14 = load ptr, ptr %tsd.addr.i15, align 8
  %state.i16 = getelementptr inbounds %struct.tsd_s, ptr %14, i32 0, i32 29
  %15 = load i8, ptr %state.i16, align 8
  store i8 %15, ptr %state.i, align 1
  %16 = load ptr, ptr %tsd.addr.i13, align 8
  store ptr %16, ptr %tsd.addr.i21, align 8
  %17 = load ptr, ptr %tsd.addr.i21, align 8
  %cant_access_tsd_items_directly_use_a_getter_or_setter_binshards.i = getelementptr inbounds %struct.tsd_s, ptr %17, i32 0, i32 22
  %binshard5 = getelementptr inbounds %struct.tsd_binshards_s, ptr %cant_access_tsd_items_directly_use_a_getter_or_setter_binshards.i, i32 0, i32 0
  %18 = load i32, ptr %binind.addr, align 4
  %idxprom = zext i32 %18 to i64
  %arrayidx = getelementptr inbounds [39 x i8], ptr %binshard5, i64 0, i64 %idxprom
  %19 = load i8, ptr %arrayidx, align 1
  %conv = zext i8 %19 to i32
  store i32 %conv, ptr %binshard, align 4
  br label %if.end

if.end:                                           ; preds = %if.else, %if.then
  br label %do.body

do.body:                                          ; preds = %if.end
  br label %do.end

do.end:                                           ; preds = %do.body
  %20 = load ptr, ptr %binshard_p.addr, align 8
  %cmp6 = icmp ne ptr %20, null
  br i1 %cmp6, label %if.then8, label %if.end9

if.then8:                                         ; preds = %do.end
  %21 = load i32, ptr %binshard, align 4
  %22 = load ptr, ptr %binshard_p.addr, align 8
  store i32 %21, ptr %22, align 4
  br label %if.end9

if.end9:                                          ; preds = %if.then8, %do.end
  %23 = load ptr, ptr %arena.addr, align 8
  %24 = load i32, ptr %binind.addr, align 4
  %25 = load i32, ptr %binshard, align 4
  %call10 = call ptr @arena_get_bin(ptr noundef %23, i32 noundef %24, i32 noundef %25)
  ret ptr %call10
}