; Function Attrs: mustprogress nofree norecurse nosync nounwind willreturn memory(read, argmem: readwrite, inaccessiblemem: none) uwtable
define hidden ptr @arena_bin_choose(ptr noundef readonly %tsdn, ptr noundef %arena, i32 noundef %binind, ptr noundef writeonly %binshard_p) local_unnamed_addr #4 {
entry:
  %cmp.i = icmp eq ptr %tsdn, null
  br i1 %cmp.i, label %do.end, label %lor.lhs.false

lor.lhs.false:                                    ; preds = %entry
  %cant_access_tsd_items_directly_use_a_getter_or_setter_arena.i = getelementptr inbounds i8, ptr %tsdn, i64 144
  %0 = load ptr, ptr %cant_access_tsd_items_directly_use_a_getter_or_setter_arena.i, align 8
  %cmp = icmp eq ptr %0, null
  br i1 %cmp, label %do.end, label %if.else

if.else:                                          ; preds = %lor.lhs.false
  %cant_access_tsd_items_directly_use_a_getter_or_setter_binshards.i = getelementptr inbounds i8, ptr %tsdn, i64 161
  %idxprom = zext i32 %binind to i64
  %arrayidx = getelementptr inbounds [39 x i8], ptr %cant_access_tsd_items_directly_use_a_getter_or_setter_binshards.i, i64 0, i64 %idxprom
  %1 = load i8, ptr %arrayidx, align 1
  %conv = zext i8 %1 to i32
  br label %do.end

do.end:                                           ; preds = %entry, %lor.lhs.false, %if.else
  %binshard.0 = phi i32 [ %conv, %if.else ], [ 0, %lor.lhs.false ], [ 0, %entry ]
  %cmp6.not = icmp eq ptr %binshard_p, null
  br i1 %cmp6.not, label %if.end9, label %if.then8

if.then8:                                         ; preds = %do.end
  store i32 %binshard.0, ptr %binshard_p, align 4
  br label %if.end9

if.end9:                                          ; preds = %if.then8, %do.end
  %2 = ptrtoint ptr %arena to i64
  %idxprom.i = zext i32 %binind to i64
  %arrayidx.i = getelementptr inbounds [39 x i32], ptr @arena_bin_offsets, i64 0, i64 %idxprom.i
  %3 = load i32, ptr %arrayidx.i, align 4
  %conv.i = zext i32 %3 to i64
  %add.i = add i64 %conv.i, %2
  %4 = inttoptr i64 %add.i to ptr
  %idx.ext.i = zext nneg i32 %binshard.0 to i64
  %add.ptr.i = getelementptr inbounds %struct.bin_s, ptr %4, i64 %idx.ext.i
  ret ptr %add.ptr.i
}